; Function Attrs: alwaysinline norecurse nounwind uwtable
define internal void @_ZN8LightGBM16MultiValDenseBinItE9CopyInnerILb1ELb1EEEvPKNS_11MultiValBinEPKiiRKSt6vectorIiSaIiEE.omp_outlined(ptr noalias noundef readonly captures(none) %0, ptr noalias readnone captures(none) %1, ptr noundef nonnull readonly align 4 captures(none) dereferenceable(4) %2, ptr noundef nonnull readonly align 4 captures(none) dereferenceable(4) %3, ptr noundef readonly captures(none) %4, ptr noundef nonnull readonly align 8 captures(none) dereferenceable(8) %5, ptr noundef nonnull readonly align 8 captures(none) dereferenceable(8) %6, ptr noundef nonnull readonly align 8 captures(none) dereferenceable(24) %7) #21 {
  %9 = alloca i32, align 4
  %10 = alloca i32, align 4
  %11 = alloca i32, align 4
  %12 = alloca i32, align 4
  %13 = load i32, ptr %2, align 4, !tbaa !10
  %14 = add nsw i32 %13, -1
  %15 = icmp sgt i32 %13, 0
  br i1 %15, label %16, label %67

16:                                               ; preds = %8
  call void @llvm.lifetime.start.p0(i64 4, ptr nonnull %9) #22
  store i32 0, ptr %9, align 4, !tbaa !10
  call void @llvm.lifetime.start.p0(i64 4, ptr nonnull %10) #22
  store i32 %14, ptr %10, align 4, !tbaa !10
  call void @llvm.lifetime.start.p0(i64 4, ptr nonnull %11) #22
  store i32 1, ptr %11, align 4, !tbaa !10
  call void @llvm.lifetime.start.p0(i64 4, ptr nonnull %12) #22
  store i32 0, ptr %12, align 4, !tbaa !10
  %17 = load i32, ptr %0, align 4, !tbaa !10
  call void @__kmpc_for_static_init_4(ptr nonnull @1, i32 %17, i32 33, ptr nonnull %12, ptr nonnull %9, ptr nonnull %10, ptr nonnull %11, i32 1, i32 1)
  %.promoted = load i32, ptr %10, align 4, !tbaa !10
  %.promoted48 = load i32, ptr %9, align 4, !tbaa !10
  %18 = call i32 @llvm.smin.i32(i32 %.promoted, i32 %14)
  store i32 %18, ptr %10, align 4, !tbaa !10
  %.not49 = icmp sgt i32 %.promoted48, %18
  br i1 %.not49, label %._crit_edge, label %.preheader.lr.ph

.preheader.lr.ph:                                 ; preds = %16
  %19 = load i32, ptr %3, align 4, !tbaa !10
  %20 = getelementptr inbounds nuw i8, ptr %4, i64 8
  %21 = load i32, ptr %20, align 4, !tbaa !10
  %22 = getelementptr inbounds nuw i8, ptr %4, i64 16
  %23 = getelementptr inbounds nuw i8, ptr %4, i64 48
  %24 = load i32, ptr %11, align 4, !tbaa !10
  %25 = mul i32 %.promoted48, %19
  %26 = mul i32 %24, %19
  br label %.preheader

.preheader:                                       ; preds = %.preheader.lr.ph, %63
  %indvars.iv52 = phi i32 [ %25, %.preheader.lr.ph ], [ %indvars.iv.next53, %63 ]
  %27 = phi i32 [ %18, %.preheader.lr.ph ], [ %66, %63 ]
  %28 = phi i32 [ %.promoted48, %.preheader.lr.ph ], [ %64, %63 ]
  %29 = load ptr, ptr %5, align 8
  %30 = load ptr, ptr %6, align 8
  %31 = getelementptr inbounds nuw i8, ptr %29, i64 16
  %32 = getelementptr inbounds nuw i8, ptr %29, i64 48
  br label %33

33:                                               ; preds = %.preheader, %._crit_edge46
  %indvars.iv54 = phi i32 [ %indvars.iv52, %.preheader ], [ %indvars.iv.next55, %._crit_edge46 ]
  %.03647 = phi i32 [ %28, %.preheader ], [ %62, %._crit_edge46 ]
  %34 = sext i32 %indvars.iv54 to i64
  %35 = mul nsw i32 %19, %.03647
  %36 = add nsw i32 %35, %19
  %.sroa.speculated = call i32 @llvm.smin.i32(i32 %36, i32 %21)
  %37 = icmp slt i32 %35, %.sroa.speculated
  br i1 %37, label %.lr.ph45, label %._crit_edge46

.lr.ph45:                                         ; preds = %33
  %38 = load i32, ptr %22, align 8, !tbaa !492
  %39 = sext i32 %38 to i64
  %40 = load i32, ptr %31, align 8, !tbaa !492
  %41 = sext i32 %40 to i64
  %42 = icmp sgt i32 %38, 0
  %43 = load ptr, ptr %7, align 8
  br i1 %42, label %.lr.ph45.split.us, label %._crit_edge46

.lr.ph45.split.us:                                ; preds = %.lr.ph45
  %44 = load ptr, ptr %32, align 8, !tbaa !126
  %45 = sext i32 %.sroa.speculated to i64
  %wide.trip.count = zext nneg i32 %38 to i64
  %46 = load ptr, ptr %23, align 8, !tbaa !126
  br label %.lr.ph.us

.lr.ph.us:                                        ; preds = %._crit_edge.us, %.lr.ph45.split.us
  %indvars.iv56 = phi i64 [ %indvars.iv.next57, %._crit_edge.us ], [ %34, %.lr.ph45.split.us ]
  %47 = mul nsw i64 %indvars.iv56, %39
  %48 = getelementptr inbounds i32, ptr %30, i64 %indvars.iv56
  %49 = load i32, ptr %48, align 4, !tbaa !10
  %50 = sext i32 %49 to i64
  %51 = mul nsw i64 %41, %50
  %52 = getelementptr i16, ptr %44, i64 %51
  %53 = getelementptr i16, ptr %46, i64 %47
  br label %54

54:                                               ; preds = %.lr.ph.us, %54
  %indvars.iv = phi i64 [ 0, %.lr.ph.us ], [ %indvars.iv.next, %54 ]
  %55 = getelementptr inbounds nuw i32, ptr %43, i64 %indvars.iv
  %56 = load i32, ptr %55, align 4, !tbaa !10
  %57 = sext i32 %56 to i64
  %58 = getelementptr i16, ptr %52, i64 %57
  %59 = load i16, ptr %58, align 2, !tbaa !50
  %60 = getelementptr i16, ptr %53, i64 %indvars.iv
  store i16 %59, ptr %60, align 2, !tbaa !50
  %indvars.iv.next = add nuw nsw i64 %indvars.iv, 1
  %exitcond.not = icmp eq i64 %indvars.iv.next, %wide.trip.count
  br i1 %exitcond.not, label %._crit_edge.us, label %54, !llvm.loop !901

._crit_edge.us:                                   ; preds = %54
  %indvars.iv.next57 = add nsw i64 %indvars.iv56, 1
  %61 = icmp slt i64 %indvars.iv.next57, %45
  br i1 %61, label %.lr.ph.us, label %._crit_edge46, !llvm.loop !902

._crit_edge46:                                    ; preds = %._crit_edge.us, %.lr.ph45, %33
  %62 = add nsw i32 %.03647, 1
  %.not39.not = icmp slt i32 %.03647, %27
  %indvars.iv.next55 = add i32 %indvars.iv54, %19
  br i1 %.not39.not, label %33, label %63

63:                                               ; preds = %._crit_edge46
  %64 = add nsw i32 %24, %28
  store i32 %64, ptr %9, align 4, !tbaa !10
  %65 = add nsw i32 %24, %27
  %66 = call i32 @llvm.smin.i32(i32 %65, i32 %14)
  store i32 %66, ptr %10, align 4, !tbaa !10
  %.not = icmp sgt i32 %64, %66
  %indvars.iv.next53 = add i32 %indvars.iv52, %26
  br i1 %.not, label %._crit_edge, label %.preheader

._crit_edge:                                      ; preds = %63, %16
  call void @__kmpc_for_static_fini(ptr nonnull @1, i32 %17)
  call void @llvm.lifetime.end.p0(i64 4, ptr nonnull %12) #22
  call void @llvm.lifetime.end.p0(i64 4, ptr nonnull %11) #22
  call void @llvm.lifetime.end.p0(i64 4, ptr nonnull %10) #22
  call void @llvm.lifetime.end.p0(i64 4, ptr nonnull %9) #22
  br label %67

67:                                               ; preds = %._crit_edge, %8
  ret void
}